target datalayout = "e-m:e-p270:32:32-p271:32:32-p272:64:64-i64:64-i128:128-f80:128-n8:16:32:64-S128"
target triple = "x86_64-pc-linux-gnu"

%struct.AVChannelLayout = type { i32, i32, %union.anon.1, ptr }
%union.anon.1 = type { i64 }
%struct.AVFilterContext = type { ptr, ptr, ptr, ptr, ptr, i32, ptr, ptr, i32, ptr, ptr, i32, i32, ptr, ptr, ptr, ptr, i32, ptr, i32, i32 }
%struct.SineContext = type { ptr, double, double, ptr, ptr, i32, i64, ptr, i64, %struct.SamplingContext, %struct.SamplingContext, i32, i32, i32 }
%struct.SamplingContext = type { i32, i32, i32, i32, i32 }
%struct.FilterLink = type { %struct.AVFilterLink, ptr, i64, i64, i32, i32, i64, i64, i64, i64, %struct.AVRational, ptr }
%struct.AVFilterLink = type { ptr, ptr, ptr, ptr, i32, i32, i32, i32, %struct.AVRational, i32, i32, i32, %struct.AVChannelLayout, %struct.AVRational, ptr, i32, %struct.AVFilterFormatsConfig, %struct.AVFilterFormatsConfig }
%struct.AVFilterFormatsConfig = type { ptr, ptr, ptr, ptr, ptr }
%struct.AVRational = type { i32, i32 }
%struct.AVFrame = type { [8 x ptr], [8 x i32], ptr, i32, i32, i32, i32, i32, %struct.AVRational, i64, i64, %struct.AVRational, i32, ptr, i32, i32, [8 x ptr], ptr, i32, ptr, i32, i32, i32, i32, i32, i32, i32, i64, ptr, i32, ptr, ptr, i64, i64, i64, i64, ptr, %struct.AVChannelLayout, i64 }

@.str.24 = private unnamed_addr constant [59 x i8] c"nb samples expression evaluated to %d, defaulting to 1024\0A\00", align 1

; Function Attrs: alwaysinline nounwind uwtable
define internal void @sampling_advance(ptr noundef %0) #8 {
  %2 = alloca ptr, align 8
  store ptr %0, ptr %2, align 8, !tbaa !75
  %3 = load ptr, ptr %2, align 8, !tbaa !75
  %4 = getelementptr inbounds nuw %struct.SamplingContext, ptr %3, i32 0, i32 1
  %5 = load i32, ptr %4, align 4, !tbaa !79
  %6 = load ptr, ptr %2, align 8, !tbaa !75
  %7 = getelementptr inbounds nuw %struct.SamplingContext, ptr %6, i32 0, i32 0
  %8 = load i32, ptr %7, align 4, !tbaa !90
  %9 = add i32 %8, %5
  store i32 %9, ptr %7, align 4, !tbaa !90
  %10 = load ptr, ptr %2, align 8, !tbaa !75
  %11 = getelementptr inbounds nuw %struct.SamplingContext, ptr %10, i32 0, i32 3
  %12 = load i32, ptr %11, align 4, !tbaa !81
  %13 = load ptr, ptr %2, align 8, !tbaa !75
  %14 = getelementptr inbounds nuw %struct.SamplingContext, ptr %13, i32 0, i32 2
  %15 = load i32, ptr %14, align 4, !tbaa !82
  %16 = add nsw i32 %15, %12
  store i32 %16, ptr %14, align 4, !tbaa !82
  %17 = load ptr, ptr %2, align 8, !tbaa !75
  %18 = getelementptr inbounds nuw %struct.SamplingContext, ptr %17, i32 0, i32 2
  %19 = load i32, ptr %18, align 4, !tbaa !82
  %20 = icmp sge i32 %19, 0
  br i1 %20, label %21, label %33

21:                                               ; preds = %1
  %22 = load ptr, ptr %2, align 8, !tbaa !75
  %23 = getelementptr inbounds nuw %struct.SamplingContext, ptr %22, i32 0, i32 4
  %24 = load i32, ptr %23, align 4, !tbaa !80
  %25 = load ptr, ptr %2, align 8, !tbaa !75
  %26 = getelementptr inbounds nuw %struct.SamplingContext, ptr %25, i32 0, i32 2
  %27 = load i32, ptr %26, align 4, !tbaa !82
  %28 = sub nsw i32 %27, %24
  store i32 %28, ptr %26, align 4, !tbaa !82
  %29 = load ptr, ptr %2, align 8, !tbaa !75
  %30 = getelementptr inbounds nuw %struct.SamplingContext, ptr %29, i32 0, i32 0
  %31 = load i32, ptr %30, align 4, !tbaa !90
  %32 = add i32 %31, 1
  store i32 %32, ptr %30, align 4, !tbaa !90
  br label %33

33:                                               ; preds = %21, %1
  ret void
}

; Function Attrs: inlinehint nounwind uwtable
define internal void @ff_outlink_set_status(ptr noundef %0, i32 noundef %1, i64 noundef %2) #7 {
  %4 = alloca ptr, align 8
  %5 = alloca i32, align 4
  %6 = alloca i64, align 8
  store ptr %0, ptr %4, align 8, !tbaa !42
  store i32 %1, ptr %5, align 4, !tbaa !37
  store i64 %2, ptr %6, align 8, !tbaa !83
  %7 = load ptr, ptr %4, align 8, !tbaa !42
  %8 = load i32, ptr %5, align 4, !tbaa !37
  %9 = load i64, ptr %6, align 8, !tbaa !83
  call void @ff_avfilter_link_set_in_status(ptr noundef %7, i32 noundef %8, i64 noundef %9)
  ret void
}

; Function Attrs: inlinehint nounwind uwtable
define internal double @av_q2d(i64 %0) #7 {
  %2 = alloca %struct.AVRational, align 4
  store i64 %0, ptr %2, align 4
  %3 = getelementptr inbounds nuw %struct.AVRational, ptr %2, i32 0, i32 0
  %4 = load i32, ptr %3, align 4, !tbaa !89
  %5 = sitofp i32 %4 to double
  %6 = getelementptr inbounds nuw %struct.AVRational, ptr %2, i32 0, i32 1
  %7 = load i32, ptr %6, align 4, !tbaa !78
  %8 = sitofp i32 %7 to double
  %9 = fdiv nsz double %5, %8
  ret double %9
}

; Function Attrs: inlinehint nounwind uwtable
define internal ptr @ff_filter_link(ptr noundef %0) #7 {
  %2 = alloca ptr, align 8
  store ptr %0, ptr %2, align 8, !tbaa !42
  %3 = load ptr, ptr %2, align 8, !tbaa !42
  ret ptr %3
}

; Function Attrs: nounwind uwtable
define internal i32 @activate(ptr noundef %0) #1 {
  %2 = alloca i32, align 4
  %3 = alloca ptr, align 8
  %4 = alloca ptr, align 8
  %5 = alloca ptr, align 8
  %6 = alloca ptr, align 8
  %7 = alloca ptr, align 8
  %8 = alloca [4 x double], align 16
  %9 = alloca i32, align 4
  %10 = alloca i32, align 4
  %11 = alloca ptr, align 8
  %12 = alloca i32, align 4
  store ptr %0, ptr %3, align 8, !tbaa !4
  call void @llvm.lifetime.start.p0(i64 8, ptr %4) #9
  %13 = load ptr, ptr %3, align 8, !tbaa !4
  %14 = getelementptr inbounds nuw %struct.AVFilterContext, ptr %13, i32 0, i32 7
  %15 = load ptr, ptr %14, align 8, !tbaa !41
  %16 = getelementptr inbounds ptr, ptr %15, i64 0
  %17 = load ptr, ptr %16, align 8, !tbaa !42
  store ptr %17, ptr %4, align 8, !tbaa !42
  call void @llvm.lifetime.start.p0(i64 8, ptr %5) #9
  %18 = load ptr, ptr %4, align 8, !tbaa !42
  %19 = call ptr @ff_filter_link(ptr noundef %18)
  store ptr %19, ptr %5, align 8, !tbaa !44
  call void @llvm.lifetime.start.p0(i64 8, ptr %6) #9
  %20 = load ptr, ptr %3, align 8, !tbaa !4
  %21 = getelementptr inbounds nuw %struct.AVFilterContext, ptr %20, i32 0, i32 9
  %22 = load ptr, ptr %21, align 8, !tbaa !9
  store ptr %22, ptr %6, align 8, !tbaa !22
  call void @llvm.lifetime.start.p0(i64 8, ptr %7) #9
  call void @llvm.lifetime.start.p0(i64 32, ptr %8) #9
  %23 = load ptr, ptr %5, align 8, !tbaa !44
  %24 = getelementptr inbounds nuw %struct.FilterLink, ptr %23, i32 0, i32 6
  %25 = load i64, ptr %24, align 8, !tbaa !46
  %26 = sitofp i64 %25 to double
  store double %26, ptr %8, align 8, !tbaa !55
  %27 = getelementptr inbounds double, ptr %8, i64 1
  %28 = load ptr, ptr %6, align 8, !tbaa !22
  %29 = getelementptr inbounds nuw %struct.SineContext, ptr %28, i32 0, i32 8
  %30 = load i64, ptr %29, align 8, !tbaa !56
  %31 = sitofp i64 %30 to double
  store double %31, ptr %27, align 8, !tbaa !55
  %32 = getelementptr inbounds double, ptr %8, i64 2
  %33 = load ptr, ptr %6, align 8, !tbaa !22
  %34 = getelementptr inbounds nuw %struct.SineContext, ptr %33, i32 0, i32 8
  %35 = load i64, ptr %34, align 8, !tbaa !56
  %36 = sitofp i64 %35 to double
  %37 = load ptr, ptr %4, align 8, !tbaa !42
  %38 = getelementptr inbounds nuw %struct.AVFilterLink, ptr %37, i32 0, i32 13
  %39 = load i64, ptr %38, align 8
  %40 = call nsz double @av_q2d(i64 %39)
  %41 = fmul nsz double %36, %40
  store double %41, ptr %32, align 8, !tbaa !55
  %42 = getelementptr inbounds double, ptr %8, i64 3
  %43 = load ptr, ptr %4, align 8, !tbaa !42
  %44 = getelementptr inbounds nuw %struct.AVFilterLink, ptr %43, i32 0, i32 13
  %45 = load i64, ptr %44, align 8
  %46 = call nsz double @av_q2d(i64 %45)
  store double %46, ptr %42, align 8, !tbaa !55
  call void @llvm.lifetime.start.p0(i64 4, ptr %9) #9
  call void @llvm.lifetime.start.p0(i64 4, ptr %10) #9
  %47 = load ptr, ptr %6, align 8, !tbaa !22
  %48 = getelementptr inbounds nuw %struct.SineContext, ptr %47, i32 0, i32 4
  %49 = load ptr, ptr %48, align 8, !tbaa !38
  %50 = getelementptr inbounds [4 x double], ptr %8, i64 0, i64 0
  %51 = load ptr, ptr %6, align 8, !tbaa !22
  %52 = call nsz double @av_expr_eval(ptr noundef %49, ptr noundef %50, ptr noundef %51)
  %53 = call i64 @llvm.lrint.i64.f64(double %52)
  %54 = trunc i64 %53 to i32
  store i32 %54, ptr %10, align 4, !tbaa !37
  call void @llvm.lifetime.start.p0(i64 8, ptr %11) #9
  %55 = load ptr, ptr %4, align 8, !tbaa !42
  %56 = call i32 @ff_outlink_frame_wanted(ptr noundef %55)
  %57 = icmp ne i32 %56, 0
  br i1 %57, label %59, label %58

58:                                               ; preds = %1
  store i32 -1497649742, ptr %2, align 4
  store i32 1, ptr %12, align 4
  br label %198

59:                                               ; preds = %1
  %60 = load i32, ptr %10, align 4, !tbaa !37
  %61 = icmp sle i32 %60, 0
  br i1 %61, label %62, label %65

62:                                               ; preds = %59
  %63 = load ptr, ptr %6, align 8, !tbaa !22
  %64 = load i32, ptr %10, align 4, !tbaa !37
  call void (ptr, i32, ptr, ...) @av_log(ptr noundef %63, i32 noundef 24, ptr noundef @.str.24, i32 noundef %64)
  store i32 1024, ptr %10, align 4, !tbaa !37
  br label %65

65:                                               ; preds = %62, %59
  %66 = load ptr, ptr %6, align 8, !tbaa !22
  %67 = getelementptr inbounds nuw %struct.SineContext, ptr %66, i32 0, i32 6
  %68 = load i64, ptr %67, align 8, !tbaa !57
  %69 = icmp ne i64 %68, 0
  br i1 %69, label %70, label %103

70:                                               ; preds = %65
  %71 = load i32, ptr %10, align 4, !tbaa !37
  %72 = sext i32 %71 to i64
  %73 = load ptr, ptr %6, align 8, !tbaa !22
  %74 = getelementptr inbounds nuw %struct.SineContext, ptr %73, i32 0, i32 6
  %75 = load i64, ptr %74, align 8, !tbaa !57
  %76 = load ptr, ptr %6, align 8, !tbaa !22
  %77 = getelementptr inbounds nuw %struct.SineContext, ptr %76, i32 0, i32 8
  %78 = load i64, ptr %77, align 8, !tbaa !56
  %79 = sub nsw i64 %75, %78
  %80 = icmp sgt i64 %72, %79
  br i1 %80, label %81, label %89

81:                                               ; preds = %70
  %82 = load ptr, ptr %6, align 8, !tbaa !22
  %83 = getelementptr inbounds nuw %struct.SineContext, ptr %82, i32 0, i32 6
  %84 = load i64, ptr %83, align 8, !tbaa !57
  %85 = load ptr, ptr %6, align 8, !tbaa !22
  %86 = getelementptr inbounds nuw %struct.SineContext, ptr %85, i32 0, i32 8
  %87 = load i64, ptr %86, align 8, !tbaa !56
  %88 = sub nsw i64 %84, %87
  br label %92

89:                                               ; preds = %70
  %90 = load i32, ptr %10, align 4, !tbaa !37
  %91 = sext i32 %90 to i64
  br label %92

92:                                               ; preds = %89, %81
  %93 = phi i64 [ %88, %81 ], [ %91, %89 ]
  %94 = trunc i64 %93 to i32
  store i32 %94, ptr %10, align 4, !tbaa !37
  %95 = load i32, ptr %10, align 4, !tbaa !37
  %96 = icmp ne i32 %95, 0
  br i1 %96, label %102, label %97

97:                                               ; preds = %92
  %98 = load ptr, ptr %4, align 8, !tbaa !42
  %99 = load ptr, ptr %6, align 8, !tbaa !22
  %100 = getelementptr inbounds nuw %struct.SineContext, ptr %99, i32 0, i32 8
  %101 = load i64, ptr %100, align 8, !tbaa !56
  call void @ff_outlink_set_status(ptr noundef %98, i32 noundef -541478725, i64 noundef %101)
  store i32 0, ptr %2, align 4
  store i32 1, ptr %12, align 4
  br label %198

102:                                              ; preds = %92
  br label %103

103:                                              ; preds = %102, %65
  %104 = load ptr, ptr %4, align 8, !tbaa !42
  %105 = load i32, ptr %10, align 4, !tbaa !37
  %106 = call ptr @ff_get_audio_buffer(ptr noundef %104, i32 noundef %105)
  store ptr %106, ptr %7, align 8, !tbaa !58
  %107 = icmp ne ptr %106, null
  br i1 %107, label %109, label %108

108:                                              ; preds = %103
  store i32 -12, ptr %2, align 4
  store i32 1, ptr %12, align 4
  br label %198

109:                                              ; preds = %103
  %110 = load ptr, ptr %7, align 8, !tbaa !58
  %111 = getelementptr inbounds nuw %struct.AVFrame, ptr %110, i32 0, i32 0
  %112 = getelementptr inbounds [8 x ptr], ptr %111, i64 0, i64 0
  %113 = load ptr, ptr %112, align 8, !tbaa !60
  store ptr %113, ptr %11, align 8, !tbaa !61
  store i32 0, ptr %9, align 4, !tbaa !37
  br label %114

114:                                              ; preds = %180, %109
  %115 = load i32, ptr %9, align 4, !tbaa !37
  %116 = load i32, ptr %10, align 4, !tbaa !37
  %117 = icmp slt i32 %115, %116
  br i1 %117, label %118, label %183

118:                                              ; preds = %114
  %119 = load ptr, ptr %6, align 8, !tbaa !22
  %120 = getelementptr inbounds nuw %struct.SineContext, ptr %119, i32 0, i32 7
  %121 = load ptr, ptr %120, align 8, !tbaa !24
  %122 = load ptr, ptr %6, align 8, !tbaa !22
  %123 = getelementptr inbounds nuw %struct.SineContext, ptr %122, i32 0, i32 9
  %124 = getelementptr inbounds nuw %struct.SamplingContext, ptr %123, i32 0, i32 0
  %125 = load i32, ptr %124, align 8, !tbaa !62
  %126 = lshr i32 %125, 17
  %127 = zext i32 %126 to i64
  %128 = getelementptr inbounds nuw i16, ptr %121, i64 %127
  %129 = load i16, ptr %128, align 2, !tbaa !63
  %130 = load ptr, ptr %11, align 8, !tbaa !61
  %131 = load i32, ptr %9, align 4, !tbaa !37
  %132 = sext i32 %131 to i64
  %133 = getelementptr inbounds i16, ptr %130, i64 %132
  store i16 %129, ptr %133, align 2, !tbaa !63
  %134 = load ptr, ptr %6, align 8, !tbaa !22
  %135 = getelementptr inbounds nuw %struct.SineContext, ptr %134, i32 0, i32 9
  call void @sampling_advance(ptr noundef %135)
  %136 = load ptr, ptr %6, align 8, !tbaa !22
  %137 = getelementptr inbounds nuw %struct.SineContext, ptr %136, i32 0, i32 12
  %138 = load i32, ptr %137, align 4, !tbaa !65
  %139 = load ptr, ptr %6, align 8, !tbaa !22
  %140 = getelementptr inbounds nuw %struct.SineContext, ptr %139, i32 0, i32 13
  %141 = load i32, ptr %140, align 8, !tbaa !35
  %142 = icmp ult i32 %138, %141
  br i1 %142, label %143, label %167

143:                                              ; preds = %118
  %144 = load ptr, ptr %6, align 8, !tbaa !22
  %145 = getelementptr inbounds nuw %struct.SineContext, ptr %144, i32 0, i32 7
  %146 = load ptr, ptr %145, align 8, !tbaa !24
  %147 = load ptr, ptr %6, align 8, !tbaa !22
  %148 = getelementptr inbounds nuw %struct.SineContext, ptr %147, i32 0, i32 10
  %149 = getelementptr inbounds nuw %struct.SamplingContext, ptr %148, i32 0, i32 0
  %150 = load i32, ptr %149, align 4, !tbaa !66
  %151 = lshr i32 %150, 17
  %152 = zext i32 %151 to i64
  %153 = getelementptr inbounds nuw i16, ptr %146, i64 %152
  %154 = load i16, ptr %153, align 2, !tbaa !63
  %155 = sext i16 %154 to i32
  %156 = mul nsw i32 %155, 2
  %157 = load ptr, ptr %11, align 8, !tbaa !61
  %158 = load i32, ptr %9, align 4, !tbaa !37
  %159 = sext i32 %158 to i64
  %160 = getelementptr inbounds i16, ptr %157, i64 %159
  %161 = load i16, ptr %160, align 2, !tbaa !63
  %162 = sext i16 %161 to i32
  %163 = add nsw i32 %162, %156
  %164 = trunc i32 %163 to i16
  store i16 %164, ptr %160, align 2, !tbaa !63
  %165 = load ptr, ptr %6, align 8, !tbaa !22
  %166 = getelementptr inbounds nuw %struct.SineContext, ptr %165, i32 0, i32 10
  call void @sampling_advance(ptr noundef %166)
  br label %167

167:                                              ; preds = %143, %118
  %168 = load ptr, ptr %6, align 8, !tbaa !22
  %169 = getelementptr inbounds nuw %struct.SineContext, ptr %168, i32 0, i32 12
  %170 = load i32, ptr %169, align 4, !tbaa !65
  %171 = add i32 %170, 1
  store i32 %171, ptr %169, align 4, !tbaa !65
  %172 = load ptr, ptr %6, align 8, !tbaa !22
  %173 = getelementptr inbounds nuw %struct.SineContext, ptr %172, i32 0, i32 11
  %174 = load i32, ptr %173, align 8, !tbaa !34
  %175 = icmp eq i32 %171, %174
  br i1 %175, label %176, label %179

176:                                              ; preds = %167
  %177 = load ptr, ptr %6, align 8, !tbaa !22
  %178 = getelementptr inbounds nuw %struct.SineContext, ptr %177, i32 0, i32 12
  store i32 0, ptr %178, align 4, !tbaa !65
  br label %179

179:                                              ; preds = %176, %167
  br label %180

180:                                              ; preds = %179
  %181 = load i32, ptr %9, align 4, !tbaa !37
  %182 = add nsw i32 %181, 1
  store i32 %182, ptr %9, align 4, !tbaa !37
  br label %114, !llvm.loop !67

183:                                              ; preds = %114
  %184 = load ptr, ptr %6, align 8, !tbaa !22
  %185 = getelementptr inbounds nuw %struct.SineContext, ptr %184, i32 0, i32 8
  %186 = load i64, ptr %185, align 8, !tbaa !56
  %187 = load ptr, ptr %7, align 8, !tbaa !58
  %188 = getelementptr inbounds nuw %struct.AVFrame, ptr %187, i32 0, i32 9
  store i64 %186, ptr %188, align 8, !tbaa !69
  %189 = load i32, ptr %10, align 4, !tbaa !37
  %190 = sext i32 %189 to i64
  %191 = load ptr, ptr %6, align 8, !tbaa !22
  %192 = getelementptr inbounds nuw %struct.SineContext, ptr %191, i32 0, i32 8
  %193 = load i64, ptr %192, align 8, !tbaa !56
  %194 = add nsw i64 %193, %190
  store i64 %194, ptr %192, align 8, !tbaa !56
  %195 = load ptr, ptr %4, align 8, !tbaa !42
  %196 = load ptr, ptr %7, align 8, !tbaa !58
  %197 = call i32 @ff_filter_frame(ptr noundef %195, ptr noundef %196)
  store i32 %197, ptr %2, align 4
  store i32 1, ptr %12, align 4
  br label %198

198:                                              ; preds = %183, %108, %97, %58
  call void @llvm.lifetime.end.p0(i64 8, ptr %11) #9
  call void @llvm.lifetime.end.p0(i64 4, ptr %10) #9
  call void @llvm.lifetime.end.p0(i64 4, ptr %9) #9
  call void @llvm.lifetime.end.p0(i64 32, ptr %8) #9
  call void @llvm.lifetime.end.p0(i64 8, ptr %7) #9
  call void @llvm.lifetime.end.p0(i64 8, ptr %6) #9
  call void @llvm.lifetime.end.p0(i64 8, ptr %5) #9
  call void @llvm.lifetime.end.p0(i64 8, ptr %4) #9
  %199 = load i32, ptr %2, align 4
  ret i32 %199
}