; Function Attrs: nounwind uwtable
define internal i32 @activate(ptr noundef readonly captures(none) %0) #1 {
  %2 = alloca [4 x double], align 16
  %3 = getelementptr inbounds nuw i8, ptr %0, i64 56
  %4 = load ptr, ptr %3, align 8, !tbaa !43
  %5 = load ptr, ptr %4, align 8, !tbaa !44
  %6 = getelementptr inbounds nuw i8, ptr %0, i64 72
  %7 = load ptr, ptr %6, align 8, !tbaa !4
  call void @llvm.lifetime.start.p0(i64 32, ptr nonnull %2) #10
  %8 = getelementptr inbounds nuw i8, ptr %5, i64 232
  %9 = load i64, ptr %8, align 8, !tbaa !46
  %10 = sitofp i64 %9 to double
  store double %10, ptr %2, align 16, !tbaa !56
  %11 = getelementptr inbounds nuw i8, ptr %2, i64 8
  %12 = getelementptr inbounds nuw i8, ptr %7, i64 64
  %13 = load i64, ptr %12, align 8, !tbaa !57
  %14 = sitofp i64 %13 to double
  store double %14, ptr %11, align 8, !tbaa !56
  %15 = getelementptr inbounds nuw i8, ptr %2, i64 16
  %16 = getelementptr inbounds nuw i8, ptr %5, i64 96
  %17 = load i64, ptr %16, align 8
  %.sroa.0.0.extract.trunc.i = trunc i64 %17 to i32
  %.sroa.2.0.extract.shift.i = lshr i64 %17, 32
  %.sroa.2.0.extract.trunc.i = trunc nuw i64 %.sroa.2.0.extract.shift.i to i32
  %18 = sitofp i32 %.sroa.0.0.extract.trunc.i to double
  %19 = sitofp i32 %.sroa.2.0.extract.trunc.i to double
  %20 = fdiv nsz double %18, %19
  %21 = fmul nsz double %20, %14
  store double %21, ptr %15, align 16, !tbaa !56
  %22 = getelementptr inbounds nuw i8, ptr %2, i64 24
  store double %20, ptr %22, align 8, !tbaa !56
  %23 = getelementptr inbounds nuw i8, ptr %7, i64 32
  %24 = load ptr, ptr %23, align 8, !tbaa !41
  %25 = call nsz double @av_expr_eval(ptr noundef %24, ptr noundef nonnull %2, ptr noundef %7) #10
  %26 = call i64 @llvm.lrint.i64.f64(double %25)
  %27 = trunc i64 %26 to i32
  %28 = call i32 @ff_outlink_frame_wanted(ptr noundef %5) #10
  %.not = icmp eq i32 %28, 0
  br i1 %.not, label %107, label %29

29:                                               ; preds = %1
  %30 = icmp slt i32 %27, 1
  br i1 %30, label %31, label %32

31:                                               ; preds = %29
  call void (ptr, i32, ptr, ...) @av_log(ptr noundef nonnull %7, i32 noundef 24, ptr noundef nonnull @.str.24, i32 noundef %27) #10
  br label %32

32:                                               ; preds = %31, %29
  %.051 = phi i32 [ 1024, %31 ], [ %27, %29 ]
  %33 = getelementptr inbounds nuw i8, ptr %7, i64 48
  %34 = load i64, ptr %33, align 8, !tbaa !58
  %.not60 = icmp eq i64 %34, 0
  br i1 %.not60, label %42, label %35

35:                                               ; preds = %32
  %36 = zext nneg i32 %.051 to i64
  %37 = load i64, ptr %12, align 8, !tbaa !57
  %38 = sub nsw i64 %34, %37
  %39 = call i64 @llvm.smin.i64(i64 %38, i64 %36)
  %40 = trunc i64 %39 to i32
  %.not61 = icmp eq i32 %40, 0
  br i1 %.not61, label %41, label %42

41:                                               ; preds = %35
  call void @ff_avfilter_link_set_in_status(ptr noundef nonnull %5, i32 noundef -541478725, i64 noundef %37) #10
  br label %107

42:                                               ; preds = %35, %32
  %.1 = phi i32 [ %40, %35 ], [ %.051, %32 ]
  %43 = call ptr @ff_get_audio_buffer(ptr noundef nonnull %5, i32 noundef %.1) #10
  %.not62 = icmp eq ptr %43, null
  br i1 %.not62, label %107, label %44

44:                                               ; preds = %42
  %45 = load ptr, ptr %43, align 8, !tbaa !59
  %46 = icmp sgt i32 %.1, 0
  br i1 %46, label %.lr.ph, label %101

.lr.ph:                                           ; preds = %44
  %47 = getelementptr inbounds nuw i8, ptr %7, i64 56
  %48 = getelementptr inbounds nuw i8, ptr %7, i64 72
  %49 = getelementptr inbounds nuw i8, ptr %7, i64 76
  %50 = getelementptr inbounds nuw i8, ptr %7, i64 84
  %51 = getelementptr inbounds nuw i8, ptr %7, i64 80
  %52 = getelementptr inbounds nuw i8, ptr %7, i64 88
  %53 = getelementptr inbounds nuw i8, ptr %7, i64 116
  %54 = getelementptr inbounds nuw i8, ptr %7, i64 120
  %55 = getelementptr inbounds nuw i8, ptr %7, i64 92
  %56 = getelementptr inbounds nuw i8, ptr %7, i64 96
  %57 = getelementptr inbounds nuw i8, ptr %7, i64 104
  %58 = getelementptr inbounds nuw i8, ptr %7, i64 100
  %59 = getelementptr inbounds nuw i8, ptr %7, i64 108
  %60 = getelementptr inbounds nuw i8, ptr %7, i64 112
  %.promoted = load i32, ptr %48, align 8, !tbaa !60
  %.promoted68 = load i32, ptr %51, align 4, !tbaa !61
  %wide.trip.count = zext nneg i32 %.1 to i64
  %.pre = load ptr, ptr %47, align 8, !tbaa !20
  %.pre72 = load i32, ptr %49, align 4, !tbaa !62
  %.pre73 = load i32, ptr %50, align 4, !tbaa !63
  %invariant.op = add i32 %.pre72, 1
  br label %61

61:                                               ; preds = %.lr.ph, %sampling_advance.exit63
  %indvars.iv = phi i64 [ 0, %.lr.ph ], [ %indvars.iv.next, %sampling_advance.exit63 ]
  %62 = phi i32 [ %.promoted68, %.lr.ph ], [ %75, %sampling_advance.exit63 ]
  %63 = phi i32 [ %.promoted, %.lr.ph ], [ %76, %sampling_advance.exit63 ]
  %64 = lshr i32 %63, 17
  %65 = zext nneg i32 %64 to i64
  %66 = getelementptr inbounds nuw i16, ptr %.pre, i64 %65
  %67 = load i16, ptr %66, align 2, !tbaa !29
  %68 = getelementptr inbounds nuw i16, ptr %45, i64 %indvars.iv
  store i16 %67, ptr %68, align 2, !tbaa !29
  %69 = add i32 %.pre72, %63
  %70 = add nsw i32 %62, %.pre73
  %71 = icmp sgt i32 %70, -1
  br i1 %71, label %72, label %sampling_advance.exit

72:                                               ; preds = %61
  %73 = load i32, ptr %52, align 4, !tbaa !64
  %74 = sub nsw i32 %70, %73
  %.reass = add i32 %63, %invariant.op
  br label %sampling_advance.exit

sampling_advance.exit:                            ; preds = %61, %72
  %75 = phi i32 [ %70, %61 ], [ %74, %72 ]
  %76 = phi i32 [ %69, %61 ], [ %.reass, %72 ]
  %77 = load i32, ptr %53, align 4, !tbaa !65
  %78 = load i32, ptr %54, align 8, !tbaa !39
  %79 = icmp ult i32 %77, %78
  br i1 %79, label %80, label %sampling_advance.exit63

80:                                               ; preds = %sampling_advance.exit
  %81 = load i32, ptr %55, align 4, !tbaa !66
  %82 = lshr i32 %81, 17
  %83 = zext nneg i32 %82 to i64
  %84 = getelementptr inbounds nuw i16, ptr %.pre, i64 %83
  %85 = load i16, ptr %84, align 2, !tbaa !29
  %86 = shl i16 %85, 1
  %87 = add i16 %86, %67
  store i16 %87, ptr %68, align 2, !tbaa !29
  %88 = load i32, ptr %56, align 4, !tbaa !62
  %89 = add i32 %88, %81
  store i32 %89, ptr %55, align 4, !tbaa !60
  %90 = load i32, ptr %57, align 4, !tbaa !63
  %91 = load i32, ptr %58, align 4, !tbaa !61
  %92 = add nsw i32 %91, %90
  store i32 %92, ptr %58, align 4, !tbaa !61
  %93 = icmp sgt i32 %92, -1
  br i1 %93, label %94, label %sampling_advance.exit63

94:                                               ; preds = %80
  %95 = load i32, ptr %59, align 4, !tbaa !64
  %96 = sub nsw i32 %92, %95
  store i32 %96, ptr %58, align 4, !tbaa !61
  %97 = add i32 %89, 1
  store i32 %97, ptr %55, align 4, !tbaa !60
  br label %sampling_advance.exit63

sampling_advance.exit63:                          ; preds = %94, %80, %sampling_advance.exit
  %98 = add i32 %77, 1
  %99 = load i32, ptr %60, align 8, !tbaa !38
  %100 = icmp eq i32 %98, %99
  %spec.store.select = select i1 %100, i32 0, i32 %98
  store i32 %spec.store.select, ptr %53, align 4
  %indvars.iv.next = add nuw nsw i64 %indvars.iv, 1
  %exitcond.not = icmp eq i64 %indvars.iv.next, %wide.trip.count
  br i1 %exitcond.not, label %._crit_edge, label %61, !llvm.loop !67

._crit_edge:                                      ; preds = %sampling_advance.exit63
  store i32 %76, ptr %48, align 8, !tbaa !60
  store i32 %75, ptr %51, align 4, !tbaa !61
  br label %101

101:                                              ; preds = %._crit_edge, %44
  %102 = load i64, ptr %12, align 8, !tbaa !57
  %103 = getelementptr inbounds nuw i8, ptr %43, i64 136
  store i64 %102, ptr %103, align 8, !tbaa !68
  %104 = sext i32 %.1 to i64
  %105 = add nsw i64 %102, %104
  store i64 %105, ptr %12, align 8, !tbaa !57
  %106 = call i32 @ff_filter_frame(ptr noundef nonnull %5, ptr noundef nonnull %43) #10
  br label %107

107:                                              ; preds = %42, %1, %101, %41
  %.0 = phi i32 [ %106, %101 ], [ 0, %41 ], [ -1497649742, %1 ], [ -12, %42 ]
  call void @llvm.lifetime.end.p0(i64 32, ptr nonnull %2) #10
  ret i32 %.0
}